target datalayout = "e-m:e-p270:32:32-p271:32:32-p272:64:64-i64:64-i128:128-f80:128-n8:16:32:64-S128"
target triple = "x86_64-pc-linux-gnu"

%struct.plugin_id_name = type { i32, ptr }

@plugin_ids = dso_local constant [2 x { i32, [4 x i8], ptr }] [{ i32, [4 x i8], ptr } { i32 102, [4 x i8] zeroinitializer, ptr @.str }, { i32, [4 x i8], ptr } { i32 109, [4 x i8] zeroinitializer, ptr @.str.1 }], align 16
@.str.2 = private unnamed_addr constant [33 x i8] c"%s: unknown select plugin id: %d\00", align 1
@__func__.select_plugin_id_to_string = private unnamed_addr constant [27 x i8] c"select_plugin_id_to_string\00", align 1

; Function Attrs: nounwind uwtable
define dso_local ptr @select_plugin_id_to_string(i32 noundef %0) #0 {
  %2 = alloca ptr, align 8
  %3 = alloca i32, align 4
  %4 = alloca i32, align 4
  %5 = alloca i32, align 4
  store i32 %0, ptr %3, align 4
  call void @llvm.lifetime.start.p0(i64 4, ptr %4) #7
  store i32 0, ptr %4, align 4
  br label %6

6:                                                ; preds = %26, %1
  %7 = load i32, ptr %4, align 4
  %8 = sext i32 %7 to i64
  %9 = icmp ult i64 %8, 2
  br i1 %9, label %11, label %10

10:                                               ; preds = %6
  store i32 2, ptr %5, align 4
  br label %29

11:                                               ; preds = %6
  %12 = load i32, ptr %3, align 4
  %13 = load i32, ptr %4, align 4
  %14 = sext i32 %13 to i64
  %15 = getelementptr inbounds [2 x %struct.plugin_id_name], ptr @plugin_ids, i64 0, i64 %14
  %16 = getelementptr inbounds nuw %struct.plugin_id_name, ptr %15, i32 0, i32 0
  %17 = load i32, ptr %16, align 16
  %18 = icmp eq i32 %12, %17
  br i1 %18, label %19, label %25

19:                                               ; preds = %11
  %20 = load i32, ptr %4, align 4
  %21 = sext i32 %20 to i64
  %22 = getelementptr inbounds [2 x %struct.plugin_id_name], ptr @plugin_ids, i64 0, i64 %21
  %23 = getelementptr inbounds nuw %struct.plugin_id_name, ptr %22, i32 0, i32 1
  %24 = load ptr, ptr %23, align 8
  store ptr %24, ptr %2, align 8
  store i32 1, ptr %5, align 4
  br label %29

25:                                               ; preds = %11
  br label %26

26:                                               ; preds = %25
  %27 = load i32, ptr %4, align 4
  %28 = add nsw i32 %27, 1
  store i32 %28, ptr %4, align 4
  br label %6, !llvm.loop !8

29:                                               ; preds = %19, %10
  call void @llvm.lifetime.end.p0(i64 4, ptr %4) #7
  %30 = load i32, ptr %5, align 4
  switch i32 %30, label %36 [
    i32 2, label %31
    i32 1, label %34
  ]

31:                                               ; preds = %29
  %32 = load i32, ptr %3, align 4
  %33 = call i32 (ptr, ...) @error(ptr noundef @.str.2, ptr noundef @__func__.select_plugin_id_to_string, i32 noundef %32)
  store ptr null, ptr %2, align 8
  br label %34

34:                                               ; preds = %31, %29
  %35 = load ptr, ptr %2, align 8
  ret ptr %35

36:                                               ; preds = %29
  unreachable
}