; Function Attrs: nounwind uwtable
define dso_local ptr @select_plugin_id_to_string(i32 noundef %0) local_unnamed_addr #0 {
  br label %3

2:                                                ; preds = %3
  br i1 %4, label %3, label %11, !llvm.loop !8

3:                                                ; preds = %1, %2
  %4 = phi i1 [ true, %1 ], [ false, %2 ]
  %indvars.iv = phi i64 [ 0, %1 ], [ 1, %2 ]
  %5 = getelementptr inbounds nuw [2 x %struct.plugin_id_name], ptr @plugin_ids, i64 0, i64 %indvars.iv
  %6 = load i32, ptr %5, align 16
  %7 = icmp eq i32 %0, %6
  br i1 %7, label %8, label %2

8:                                                ; preds = %3
  %9 = getelementptr inbounds nuw i8, ptr %5, i64 8
  %10 = load ptr, ptr %9, align 8
  br label %13

11:                                               ; preds = %2
  %12 = tail call i32 (ptr, ...) @error(ptr noundef nonnull @.str.2, ptr noundef nonnull @__func__.select_plugin_id_to_string, i32 noundef %0) #15
  br label %13

13:                                               ; preds = %8, %11
  %.1 = phi ptr [ %10, %8 ], [ null, %11 ]
  ret ptr %.1
}